target datalayout = "e-m:e-p270:32:32-p271:32:32-p272:64:64-i64:64-i128:128-f80:128-n8:16:32:64-S128"
target triple = "x86_64-pc-linux-gnu"

%struct.AVCodecContext = type { ptr, i32, i32, ptr, i32, i32, ptr, ptr, ptr, i64, i32, i32, ptr, i32, %struct.AVRational, %struct.AVRational, %struct.AVRational, i32, i32, i32, i32, i32, %struct.AVRational, i32, i32, i32, i32, i32, i32, i32, i32, i32, i32, i32, ptr, ptr, i32, float, float, float, float, float, float, float, float, float, i32, i32, i32, i32, i32, i32, i32, i32, i32, i32, i32, i32, ptr, ptr, ptr, i32, i32, i32, i32, i32, i32, i32, i32, i32, i32, %struct.AVChannelLayout, i32, i32, i32, i32, i32, i32, i32, i32, ptr, i32, i32, i32, float, float, i32, i32, i32, i32, i32, ptr, i64, i64, float, float, i32, i32, ptr, ptr, i32, i32, i32, i32, i32, ptr, ptr, ptr, ptr, i32, i32, [8 x i64], i32, i32, i32, i32, i32, i32, i32, ptr, ptr, i32, i32, i32, i32, i32, i32, i32, i32, i32, i32, ptr, ptr, i32, i32, ptr, ptr, ptr, ptr, i32, i32, i64, i32, i32, i64, ptr, i64, ptr, i32, ptr, i32 }
%struct.AVRational = type { i32, i32 }
%struct.AVChannelLayout = type { i32, i32, %union.anon.1, ptr }
%union.anon.1 = type { i64 }
%struct.VAAPIEncodeContext = type { %struct.FFHWBaseEncodeContext, ptr, i32, i32, i32, i32, i32, i32, ptr, ptr, i32, i32, i32, i32, i32, i32, [4 x %struct._VAConfigAttrib], i32, i32, i32, ptr, ptr, [4 x i32], [4 x ptr], [4 x i64], i32, %struct._VAEncMiscParameterRateControl, %struct._VAEncMiscParameterHRD, %struct._VAEncMiscParameterFrameRate, %struct._VAEncMiscParameterBufferMaxFrameSize, %struct._VAEncMiscParameterBufferQualityLevel, ptr, ptr, i32, i32, i32, i32, i32, i32, [20 x i32], [22 x i32], [21 x i32], [23 x i32], i32, i32, ptr, i32, i32 }
%struct.FFHWBaseEncodeContext = type { ptr, ptr, ptr, i32, i32, i32, i32, i32, i32, ptr, ptr, ptr, ptr, ptr, ptr, ptr, ptr, [2 x ptr], i32, i64, i64, i64, i64, i64, i64, i64, [112 x i64], i32, i32, i32, i32, i32, i32, i32, i32, i32, i32, i32, i32, i32, i32, i32, i32, ptr, i32, ptr, i32, ptr }
%struct._VAConfigAttrib = type { i32, i32 }
%struct._VAEncMiscParameterRateControl = type { i32, i32, i32, i32, i32, i32, %union.anon.2, i32, i32, i32, i32, [4 x i32] }
%union.anon.2 = type { %struct.anon }
%struct.anon = type { i32 }
%struct._VAEncMiscParameterHRD = type { i32, i32, [4 x i32] }
%struct._VAEncMiscParameterFrameRate = type { i32, %union.anon.3, [4 x i32] }
%union.anon.3 = type { %struct.anon.4 }
%struct.anon.4 = type { i32 }
%struct._VAEncMiscParameterBufferMaxFrameSize = type { i32, i32, [4 x i32] }
%struct._VAEncMiscParameterBufferQualityLevel = type { i32, [4 x i32] }
%struct.VAAPIEncodeMJPEGContext = type { %struct.VAAPIEncodeContext, i32, i32, i32, [14 x i8], %struct.JPEGRawFrameHeader, %struct.JPEGRawScan, %struct.JPEGRawApplicationData, %struct.JPEGRawQuantisationTableSpecification, %struct.JPEGRawHuffmanTableSpecification, ptr, %struct.CodedBitstreamFragment }
%struct.JPEGRawFrameHeader = type { i16, i8, i16, i16, i16, [255 x i8], [255 x i8], [255 x i8], [255 x i8] }
%struct.JPEGRawScan = type { %struct.JPEGRawScanHeader, ptr, ptr, i64 }
%struct.JPEGRawScanHeader = type { i16, i8, [255 x i8], [255 x i8], [255 x i8], i8, i8, i8, i8 }
%struct.JPEGRawApplicationData = type { i16, ptr, ptr }
%struct.JPEGRawQuantisationTableSpecification = type { i16, [4 x %struct.JPEGRawQuantisationTable] }
%struct.JPEGRawQuantisationTable = type { i8, i8, [64 x i16] }
%struct.JPEGRawHuffmanTableSpecification = type { i16, [8 x %struct.JPEGRawHuffmanTable] }
%struct.JPEGRawHuffmanTable = type { i8, i8, [16 x i8], [256 x i8] }
%struct.CodedBitstreamFragment = type { ptr, i64, i64, ptr, i32, i32, ptr }

@.str.31 = private unnamed_addr constant [31 x i8] c"Failed to write image header.\0A\00", align 1
@.str.32 = private unnamed_addr constant [36 x i8] c"Image header too large: %zu < %zu.\0A\00", align 1

; Function Attrs: nounwind uwtable
define internal i32 @vaapi_encode_mjpeg_write_image_header(ptr noundef %0, ptr noundef %1, ptr noundef %2, ptr noundef %3, ptr noundef %4) #3 {
  %6 = alloca ptr, align 8
  %7 = alloca ptr, align 8
  %8 = alloca ptr, align 8
  %9 = alloca ptr, align 8
  %10 = alloca ptr, align 8
  %11 = alloca ptr, align 8
  %12 = alloca ptr, align 8
  %13 = alloca i32, align 4
  store ptr %0, ptr %6, align 8, !tbaa !4
  store ptr %1, ptr %7, align 8, !tbaa !87
  store ptr %2, ptr %8, align 8, !tbaa !160
  store ptr %3, ptr %9, align 8, !tbaa !101
  store ptr %4, ptr %10, align 8, !tbaa !173
  call void @llvm.lifetime.start.p0(i64 8, ptr %11) #9
  %14 = load ptr, ptr %6, align 8, !tbaa !4
  %15 = getelementptr inbounds nuw %struct.AVCodecContext, ptr %14, i32 0, i32 6
  %16 = load ptr, ptr %15, align 8, !tbaa !9
  store ptr %16, ptr %11, align 8, !tbaa !52
  call void @llvm.lifetime.start.p0(i64 8, ptr %12) #9
  %17 = load ptr, ptr %11, align 8, !tbaa !52
  %18 = getelementptr inbounds nuw %struct.VAAPIEncodeMJPEGContext, ptr %17, i32 0, i32 11
  store ptr %18, ptr %12, align 8, !tbaa !175
  call void @llvm.lifetime.start.p0(i64 4, ptr %13) #9
  %19 = load ptr, ptr %11, align 8, !tbaa !52
  %20 = getelementptr inbounds nuw %struct.VAAPIEncodeMJPEGContext, ptr %19, i32 0, i32 1
  %21 = load i32, ptr %20, align 8, !tbaa !111
  %22 = icmp ne i32 %21, 0
  br i1 %22, label %23, label %32

23:                                               ; preds = %5
  %24 = load ptr, ptr %12, align 8, !tbaa !175
  %25 = load ptr, ptr %11, align 8, !tbaa !52
  %26 = getelementptr inbounds nuw %struct.VAAPIEncodeMJPEGContext, ptr %25, i32 0, i32 7
  %27 = call i32 @ff_cbs_insert_unit_content(ptr noundef %24, i32 noundef -1, i32 noundef 224, ptr noundef %26, ptr noundef null)
  store i32 %27, ptr %13, align 4, !tbaa !83
  %28 = load i32, ptr %13, align 4, !tbaa !83
  %29 = icmp slt i32 %28, 0
  br i1 %29, label %30, label %31

30:                                               ; preds = %23
  br label %111

31:                                               ; preds = %23
  br label %32

32:                                               ; preds = %31, %5
  %33 = load ptr, ptr %12, align 8, !tbaa !175
  %34 = load ptr, ptr %11, align 8, !tbaa !52
  %35 = getelementptr inbounds nuw %struct.VAAPIEncodeMJPEGContext, ptr %34, i32 0, i32 8
  %36 = call i32 @ff_cbs_insert_unit_content(ptr noundef %33, i32 noundef -1, i32 noundef 219, ptr noundef %35, ptr noundef null)
  store i32 %36, ptr %13, align 4, !tbaa !83
  %37 = load i32, ptr %13, align 4, !tbaa !83
  %38 = icmp slt i32 %37, 0
  br i1 %38, label %39, label %40

39:                                               ; preds = %32
  br label %111

40:                                               ; preds = %32
  %41 = load ptr, ptr %12, align 8, !tbaa !175
  %42 = load ptr, ptr %11, align 8, !tbaa !52
  %43 = getelementptr inbounds nuw %struct.VAAPIEncodeMJPEGContext, ptr %42, i32 0, i32 5
  %44 = call i32 @ff_cbs_insert_unit_content(ptr noundef %41, i32 noundef -1, i32 noundef 192, ptr noundef %43, ptr noundef null)
  store i32 %44, ptr %13, align 4, !tbaa !83
  %45 = load i32, ptr %13, align 4, !tbaa !83
  %46 = icmp slt i32 %45, 0
  br i1 %46, label %47, label %48

47:                                               ; preds = %40
  br label %111

48:                                               ; preds = %40
  %49 = load ptr, ptr %11, align 8, !tbaa !52
  %50 = getelementptr inbounds nuw %struct.VAAPIEncodeMJPEGContext, ptr %49, i32 0, i32 2
  %51 = load i32, ptr %50, align 4, !tbaa !177
  %52 = icmp ne i32 %51, 0
  br i1 %52, label %53, label %62

53:                                               ; preds = %48
  %54 = load ptr, ptr %12, align 8, !tbaa !175
  %55 = load ptr, ptr %11, align 8, !tbaa !52
  %56 = getelementptr inbounds nuw %struct.VAAPIEncodeMJPEGContext, ptr %55, i32 0, i32 9
  %57 = call i32 @ff_cbs_insert_unit_content(ptr noundef %54, i32 noundef -1, i32 noundef 196, ptr noundef %56, ptr noundef null)
  store i32 %57, ptr %13, align 4, !tbaa !83
  %58 = load i32, ptr %13, align 4, !tbaa !83
  %59 = icmp slt i32 %58, 0
  br i1 %59, label %60, label %61

60:                                               ; preds = %53
  br label %111

61:                                               ; preds = %53
  br label %62

62:                                               ; preds = %61, %48
  %63 = load ptr, ptr %12, align 8, !tbaa !175
  %64 = load ptr, ptr %11, align 8, !tbaa !52
  %65 = getelementptr inbounds nuw %struct.VAAPIEncodeMJPEGContext, ptr %64, i32 0, i32 6
  %66 = call i32 @ff_cbs_insert_unit_content(ptr noundef %63, i32 noundef -1, i32 noundef 218, ptr noundef %65, ptr noundef null)
  store i32 %66, ptr %13, align 4, !tbaa !83
  %67 = load i32, ptr %13, align 4, !tbaa !83
  %68 = icmp slt i32 %67, 0
  br i1 %68, label %69, label %70

69:                                               ; preds = %62
  br label %111

70:                                               ; preds = %62
  %71 = load ptr, ptr %11, align 8, !tbaa !52
  %72 = getelementptr inbounds nuw %struct.VAAPIEncodeMJPEGContext, ptr %71, i32 0, i32 10
  %73 = load ptr, ptr %72, align 8, !tbaa !178
  %74 = load ptr, ptr %12, align 8, !tbaa !175
  %75 = call i32 @ff_cbs_write_fragment_data(ptr noundef %73, ptr noundef %74)
  store i32 %75, ptr %13, align 4, !tbaa !83
  %76 = load i32, ptr %13, align 4, !tbaa !83
  %77 = icmp slt i32 %76, 0
  br i1 %77, label %78, label %80

78:                                               ; preds = %70
  %79 = load ptr, ptr %6, align 8, !tbaa !4
  call void (ptr, i32, ptr, ...) @av_log(ptr noundef %79, i32 noundef 16, ptr noundef @.str.31)
  br label %111

80:                                               ; preds = %70
  %81 = load ptr, ptr %10, align 8, !tbaa !173
  %82 = load i64, ptr %81, align 8, !tbaa !179
  %83 = load ptr, ptr %12, align 8, !tbaa !175
  %84 = getelementptr inbounds nuw %struct.CodedBitstreamFragment, ptr %83, i32 0, i32 1
  %85 = load i64, ptr %84, align 8, !tbaa !180
  %86 = mul i64 8, %85
  %87 = icmp ult i64 %82, %86
  br i1 %87, label %88, label %96

88:                                               ; preds = %80
  %89 = load ptr, ptr %6, align 8, !tbaa !4
  %90 = load ptr, ptr %10, align 8, !tbaa !173
  %91 = load i64, ptr %90, align 8, !tbaa !179
  %92 = load ptr, ptr %12, align 8, !tbaa !175
  %93 = getelementptr inbounds nuw %struct.CodedBitstreamFragment, ptr %92, i32 0, i32 1
  %94 = load i64, ptr %93, align 8, !tbaa !180
  %95 = mul i64 8, %94
  call void (ptr, i32, ptr, ...) @av_log(ptr noundef %89, i32 noundef 16, ptr noundef @.str.32, i64 noundef %91, i64 noundef %95)
  store i32 -28, ptr %13, align 4, !tbaa !83
  br label %111

96:                                               ; preds = %80
  %97 = load ptr, ptr %9, align 8, !tbaa !101
  %98 = load ptr, ptr %12, align 8, !tbaa !175
  %99 = getelementptr inbounds nuw %struct.CodedBitstreamFragment, ptr %98, i32 0, i32 0
  %100 = load ptr, ptr %99, align 8, !tbaa !181
  %101 = load ptr, ptr %12, align 8, !tbaa !175
  %102 = getelementptr inbounds nuw %struct.CodedBitstreamFragment, ptr %101, i32 0, i32 1
  %103 = load i64, ptr %102, align 8, !tbaa !180
  %104 = sub i64 %103, 2
  call void @llvm.memcpy.p0.p0.i64(ptr align 1 %97, ptr align 1 %100, i64 %104, i1 false)
  %105 = load ptr, ptr %12, align 8, !tbaa !175
  %106 = getelementptr inbounds nuw %struct.CodedBitstreamFragment, ptr %105, i32 0, i32 1
  %107 = load i64, ptr %106, align 8, !tbaa !180
  %108 = sub i64 %107, 2
  %109 = mul i64 8, %108
  %110 = load ptr, ptr %10, align 8, !tbaa !173
  store i64 %109, ptr %110, align 8, !tbaa !179
  store i32 0, ptr %13, align 4, !tbaa !83
  br label %111

111:                                              ; preds = %96, %88, %78, %69, %60, %47, %39, %30
  %112 = load ptr, ptr %12, align 8, !tbaa !175
  call void @ff_cbs_fragment_reset(ptr noundef %112)
  %113 = load i32, ptr %13, align 4, !tbaa !83
  call void @llvm.lifetime.end.p0(i64 4, ptr %13) #9
  call void @llvm.lifetime.end.p0(i64 8, ptr %12) #9
  call void @llvm.lifetime.end.p0(i64 8, ptr %11) #9
  ret i32 %113
}