; Function Attrs: nounwind uwtable
define internal range(i32 -2147483648, 1) i32 @vaapi_encode_mjpeg_write_image_header(ptr noundef %0, ptr readnone captures(none) %1, ptr readnone captures(none) %2, ptr noundef writeonly captures(none) %3, ptr noundef captures(none) %4) #3 {
  %6 = getelementptr inbounds nuw i8, ptr %0, i64 32
  %7 = load ptr, ptr %6, align 8, !tbaa !4
  %8 = getelementptr inbounds nuw i8, ptr %7, i64 6584
  %9 = getelementptr inbounds nuw i8, ptr %7, i64 1976
  %10 = load i32, ptr %9, align 8, !tbaa !90
  %.not = icmp eq i32 %10, 0
  br i1 %.not, label %15, label %11

11:                                               ; preds = %5
  %12 = getelementptr inbounds nuw i8, ptr %7, i64 3832
  %13 = tail call i32 @ff_cbs_insert_unit_content(ptr noundef nonnull %8, i32 noundef -1, i32 noundef 224, ptr noundef nonnull %12, ptr noundef null) #9
  %14 = icmp slt i32 %13, 0
  br i1 %14, label %53, label %15

15:                                               ; preds = %11, %5
  %16 = getelementptr inbounds nuw i8, ptr %7, i64 3856
  %17 = tail call i32 @ff_cbs_insert_unit_content(ptr noundef nonnull %8, i32 noundef -1, i32 noundef 219, ptr noundef nonnull %16, ptr noundef null) #9
  %18 = icmp slt i32 %17, 0
  br i1 %18, label %53, label %19

19:                                               ; preds = %15
  %20 = getelementptr inbounds nuw i8, ptr %7, i64 2002
  %21 = tail call i32 @ff_cbs_insert_unit_content(ptr noundef nonnull %8, i32 noundef -1, i32 noundef 192, ptr noundef nonnull %20, ptr noundef null) #9
  %22 = icmp slt i32 %21, 0
  br i1 %22, label %53, label %23

23:                                               ; preds = %19
  %24 = getelementptr inbounds nuw i8, ptr %7, i64 1980
  %25 = load i32, ptr %24, align 4, !tbaa !128
  %.not42 = icmp eq i32 %25, 0
  br i1 %.not42, label %30, label %26

26:                                               ; preds = %23
  %27 = getelementptr inbounds nuw i8, ptr %7, i64 4378
  %28 = tail call i32 @ff_cbs_insert_unit_content(ptr noundef nonnull %8, i32 noundef -1, i32 noundef 196, ptr noundef nonnull %27, ptr noundef null) #9
  %29 = icmp slt i32 %28, 0
  br i1 %29, label %53, label %30

30:                                               ; preds = %26, %23
  %31 = getelementptr inbounds nuw i8, ptr %7, i64 3032
  %32 = tail call i32 @ff_cbs_insert_unit_content(ptr noundef nonnull %8, i32 noundef -1, i32 noundef 218, ptr noundef nonnull %31, ptr noundef null) #9
  %33 = icmp slt i32 %32, 0
  br i1 %33, label %53, label %34

34:                                               ; preds = %30
  %35 = getelementptr inbounds nuw i8, ptr %7, i64 6576
  %36 = load ptr, ptr %35, align 8, !tbaa !129
  %37 = tail call i32 @ff_cbs_write_fragment_data(ptr noundef %36, ptr noundef nonnull %8) #9
  %38 = icmp slt i32 %37, 0
  br i1 %38, label %39, label %40

39:                                               ; preds = %34
  tail call void (ptr, i32, ptr, ...) @av_log(ptr noundef nonnull %0, i32 noundef 16, ptr noundef nonnull @.str.31) #9
  br label %53

40:                                               ; preds = %34
  %41 = load i64, ptr %4, align 8, !tbaa !130
  %42 = getelementptr inbounds nuw i8, ptr %7, i64 6592
  %43 = load i64, ptr %42, align 8, !tbaa !131
  %44 = shl i64 %43, 3
  %45 = icmp ult i64 %41, %44
  br i1 %45, label %46, label %47

46:                                               ; preds = %40
  tail call void (ptr, i32, ptr, ...) @av_log(ptr noundef nonnull %0, i32 noundef 16, ptr noundef nonnull @.str.32, i64 noundef %41, i64 noundef %44) #9
  br label %53

47:                                               ; preds = %40
  %48 = load ptr, ptr %8, align 8, !tbaa !132
  %49 = add i64 %43, -2
  tail call void @llvm.memcpy.p0.p0.i64(ptr align 1 %3, ptr align 1 %48, i64 %49, i1 false)
  %50 = load i64, ptr %42, align 8, !tbaa !131
  %51 = shl i64 %50, 3
  %52 = add i64 %51, -16
  store i64 %52, ptr %4, align 8, !tbaa !130
  br label %53

53:                                               ; preds = %30, %26, %19, %15, %11, %47, %46, %39
  %.0 = phi i32 [ %13, %11 ], [ %17, %15 ], [ %21, %19 ], [ %28, %26 ], [ %32, %30 ], [ %37, %39 ], [ -28, %46 ], [ 0, %47 ]
  tail call void @ff_cbs_fragment_reset(ptr noundef nonnull %8) #9
  ret i32 %.0
}